; Function Attrs: mustprogress uwtable
define hidden noundef zeroext i1 @_ZN12mpbq_manager2leERK4mpbqRK3mpz(ptr noundef nonnull align 8 dereferenceable(208) %0, ptr noundef nonnull align 8 dereferenceable(20) %1, ptr noundef nonnull align 8 dereferenceable(16) %2) local_unnamed_addr #3 align 2 {
  %4 = getelementptr inbounds nuw i8, ptr %1, i64 16
  %5 = load i32, ptr %4, align 8, !tbaa !13
  %6 = icmp eq i32 %5, 0
  %7 = load ptr, ptr %0, align 8, !tbaa !26
  br i1 %6, label %8, label %25

8:                                                ; preds = %3
  %9 = getelementptr inbounds nuw i8, ptr %2, i64 4
  %10 = load i8, ptr %9, align 4
  %11 = and i8 %10, 1
  %12 = icmp eq i8 %11, 0
  br i1 %12, label %13, label %22

13:                                               ; preds = %8
  %14 = getelementptr inbounds nuw i8, ptr %1, i64 4
  %15 = load i8, ptr %14, align 4
  %16 = and i8 %15, 1
  %17 = icmp eq i8 %16, 0
  br i1 %17, label %18, label %22

18:                                               ; preds = %13
  %19 = load i32, ptr %2, align 8, !tbaa !3
  %20 = load i32, ptr %1, align 8, !tbaa !3
  %21 = icmp slt i32 %19, %20
  br label %_ZN11mpz_managerILb0EE2leERK3mpzS3_.exit

22:                                               ; preds = %13, %8
  %23 = tail call noundef i32 @_ZN11mpz_managerILb0EE11big_compareERK3mpzS3_(ptr noundef nonnull align 8 dereferenceable(600) %7, ptr noundef nonnull align 8 dereferenceable(16) %2, ptr noundef nonnull align 8 dereferenceable(16) %1)
  %24 = icmp slt i32 %23, 0
  br label %_ZN11mpz_managerILb0EE2leERK3mpzS3_.exit

25:                                               ; preds = %3
  %26 = getelementptr inbounds nuw i8, ptr %0, i64 8
  %27 = getelementptr inbounds nuw i8, ptr %2, i64 4
  %28 = load i8, ptr %27, align 4
  %29 = and i8 %28, 1
  %30 = icmp eq i8 %29, 0
  br i1 %30, label %31, label %36

31:                                               ; preds = %25
  %32 = load i32, ptr %2, align 8, !tbaa !3
  store i32 %32, ptr %26, align 8, !tbaa !3
  %33 = getelementptr inbounds nuw i8, ptr %0, i64 12
  %34 = load i8, ptr %33, align 4
  %35 = and i8 %34, -2
  store i8 %35, ptr %33, align 4
  br label %_ZN11mpz_managerILb0EE5mul2kERK3mpzjRS1_.exit

36:                                               ; preds = %25
  tail call void @_ZN11mpz_managerILb0EE7big_setER3mpzRKS1_(ptr noundef nonnull align 8 dereferenceable(600) %7, ptr noundef nonnull align 8 dereferenceable(16) %26, ptr noundef nonnull align 8 dereferenceable(16) %2)
  br label %_ZN11mpz_managerILb0EE5mul2kERK3mpzjRS1_.exit

_ZN11mpz_managerILb0EE5mul2kERK3mpzjRS1_.exit:    ; preds = %31, %36
  tail call void @_ZN11mpz_managerILb0EE5mul2kER3mpzj(ptr noundef nonnull align 8 dereferenceable(600) %7, ptr noundef nonnull align 8 dereferenceable(16) %26, i32 noundef %5)
  %37 = load ptr, ptr %0, align 8, !tbaa !26
  %38 = getelementptr inbounds nuw i8, ptr %0, i64 12
  %39 = load i8, ptr %38, align 4
  %40 = and i8 %39, 1
  %41 = icmp eq i8 %40, 0
  br i1 %41, label %42, label %51

42:                                               ; preds = %_ZN11mpz_managerILb0EE5mul2kERK3mpzjRS1_.exit
  %43 = getelementptr inbounds nuw i8, ptr %1, i64 4
  %44 = load i8, ptr %43, align 4
  %45 = and i8 %44, 1
  %46 = icmp eq i8 %45, 0
  br i1 %46, label %47, label %51

47:                                               ; preds = %42
  %48 = load i32, ptr %26, align 8, !tbaa !3
  %49 = load i32, ptr %1, align 8, !tbaa !3
  %50 = icmp slt i32 %48, %49
  br label %_ZN11mpz_managerILb0EE2leERK3mpzS3_.exit

51:                                               ; preds = %42, %_ZN11mpz_managerILb0EE5mul2kERK3mpzjRS1_.exit
  %52 = tail call noundef i32 @_ZN11mpz_managerILb0EE11big_compareERK3mpzS3_(ptr noundef nonnull align 8 dereferenceable(600) %37, ptr noundef nonnull align 8 dereferenceable(16) %26, ptr noundef nonnull align 8 dereferenceable(16) %1)
  %53 = icmp slt i32 %52, 0
  br label %_ZN11mpz_managerILb0EE2leERK3mpzS3_.exit

_ZN11mpz_managerILb0EE2leERK3mpzS3_.exit:         ; preds = %51, %47, %22, %18
  %.0.in = phi i1 [ %21, %18 ], [ %24, %22 ], [ %50, %47 ], [ %53, %51 ]
  %.0 = xor i1 %.0.in, true
  ret i1 %.0
}